; ModuleID = 'bench/proj/original/natearth.cpp.ll'
source_filename = "bench/proj/original/natearth.cpp.ll"
target datalayout = "e-m:e-p270:32:32-p271:32:32-p272:64:64-i64:64-i128:128-f80:128-n8:16:32:64-S128"
target triple = "x86_64-pc-linux-gnu"

@_ZL12des_natearth = internal constant [25 x i8] c"Natural Earth\0A\09PCyl, Sph\00", align 16
@pj_s_natearth = hidden local_unnamed_addr constant ptr @_ZL12des_natearth, align 8
@.str = private unnamed_addr constant [9 x i8] c"natearth\00", align 1

; Function Attrs: mustprogress uwtable
define hidden noundef ptr @pj_natearth(ptr noundef writeonly %0) local_unnamed_addr #0 {
  %.not = icmp eq ptr %0, null
  br i1 %.not, label %6, label %2

2:                                                ; preds = %1
  %3 = getelementptr inbounds i8, ptr %0, i64 216
  store double 0.000000e+00, ptr %3, align 8
  %4 = getelementptr inbounds i8, ptr %0, i64 112
  store ptr @_ZL18natearth_s_inverse5PJ_XYP8PJconsts, ptr %4, align 8
  %5 = getelementptr inbounds i8, ptr %0, i64 104
  store ptr @_ZL18natearth_s_forward5PJ_LPP8PJconsts, ptr %5, align 8
  br label %15

6:                                                ; preds = %1
  %7 = tail call noundef ptr @_Z6pj_newv()
  %8 = icmp eq ptr %7, null
  br i1 %8, label %15, label %9

9:                                                ; preds = %6
  %10 = getelementptr inbounds i8, ptr %7, i64 8
  store ptr @.str, ptr %10, align 8
  %11 = getelementptr inbounds i8, ptr %7, i64 16
  store ptr @_ZL12des_natearth, ptr %11, align 8
  %12 = getelementptr inbounds i8, ptr %7, i64 360
  store i32 1, ptr %12, align 8
  %13 = getelementptr inbounds i8, ptr %7, i64 380
  store i32 4, ptr %13, align 4
  %14 = getelementptr inbounds i8, ptr %7, i64 384
  store i32 1, ptr %14, align 8
  br label %15

15:                                               ; preds = %6, %9, %2
  %.0 = phi ptr [ %0, %2 ], [ %7, %9 ], [ null, %6 ]
  ret ptr %.0
}

; Function Attrs: mustprogress nofree norecurse nosync nounwind willreturn memory(argmem: write) uwtable
define hidden noundef ptr @_Z37pj_projection_specific_setup_natearthP8PJconsts(ptr noundef returned writeonly %0) local_unnamed_addr #1 {
  %2 = getelementptr inbounds i8, ptr %0, i64 216
  store double 0.000000e+00, ptr %2, align 8
  %3 = getelementptr inbounds i8, ptr %0, i64 112
  store ptr @_ZL18natearth_s_inverse5PJ_XYP8PJconsts, ptr %3, align 8
  %4 = getelementptr inbounds i8, ptr %0, i64 104
  store ptr @_ZL18natearth_s_forward5PJ_LPP8PJconsts, ptr %4, align 8
  ret ptr %0
}

declare noundef ptr @_Z6pj_newv() local_unnamed_addr #2

; Function Attrs: mustprogress uwtable
define internal { double, double } @_ZL18natearth_s_inverse5PJ_XYP8PJconsts(double %0, double %1, ptr nocapture noundef readonly %2) #0 {
  %4 = fcmp ogt double %1, 0x3FF6C2268FB400DA
  br i1 %4, label %8, label %5

5:                                                ; preds = %3
  %6 = fcmp olt double %1, 0xBFF6C2268FB400DA
  br i1 %6, label %7, label %8

7:                                                ; preds = %5
  br label %8

8:                                                ; preds = %3, %5, %7
  %.sroa.2.0 = phi double [ 0xBFF6C2268FB400DA, %7 ], [ %1, %5 ], [ 0x3FF6C2268FB400DA, %3 ]
  %9 = fneg double %.sroa.2.0
  %10 = insertelement <2 x double> <double poison, double 0x3FF01D99029AE4F3>, double %9, i64 0
  br label %13

11:                                               ; preds = %13
  %12 = add nsw i32 %.041, -1
  %.not = icmp eq i32 %12, 0
  br i1 %.not, label %36, label %13, !llvm.loop !4

13:                                               ; preds = %8, %11
  %.041 = phi i32 [ 100, %8 ], [ %12, %11 ]
  %.03440 = phi double [ %.sroa.2.0, %8 ], [ %33, %11 ]
  %14 = fmul double %.03440, %.03440
  %15 = fmul double %14, %14
  %16 = tail call double @llvm.fmuladd.f64(double %14, double 2.887400e-02, double -4.447500e-02)
  %17 = tail call double @llvm.fmuladd.f64(double %15, double -5.916000e-03, double %16)
  %18 = tail call double @llvm.fmuladd.f64(double %14, double 2.598660e-01, double -3.113250e-01)
  %19 = insertelement <2 x double> poison, double %15, i64 0
  %20 = shufflevector <2 x double> %19, <2 x double> poison, <2 x i32> zeroinitializer
  %21 = insertelement <2 x double> <double poison, double 0xBFB0A8D21BC126A7>, double %17, i64 0
  %22 = insertelement <2 x double> <double 1.508500e-02, double poison>, double %18, i64 1
  %23 = tail call <2 x double> @llvm.fmuladd.v2f64(<2 x double> %20, <2 x double> %21, <2 x double> %22)
  %24 = insertelement <2 x double> poison, double %14, i64 0
  %25 = insertelement <2 x double> %24, double %15, i64 1
  %26 = tail call <2 x double> @llvm.fmuladd.v2f64(<2 x double> %25, <2 x double> %23, <2 x double> <double 0x3FF01D99029AE4F3, double 4.525500e-02>)
  %27 = insertelement <2 x double> poison, double %.03440, i64 0
  %28 = insertelement <2 x double> %27, double %14, i64 1
  %29 = tail call <2 x double> @llvm.fmuladd.v2f64(<2 x double> %28, <2 x double> %26, <2 x double> %10)
  %30 = extractelement <2 x double> %29, i64 0
  %31 = extractelement <2 x double> %29, i64 1
  %32 = fdiv double %30, %31
  %33 = fsub double %.03440, %32
  %34 = tail call double @llvm.fabs.f64(double %32)
  %35 = fcmp olt double %34, 0x3DA5FD7FE1796495
  br i1 %35, label %.loopexit, label %11

36:                                               ; preds = %11
  %37 = load ptr, ptr %2, align 8
  tail call void @_Z22proj_context_errno_setP6pj_ctxi(ptr noundef %37, i32 noundef 2050)
  br label %.loopexit

.loopexit:                                        ; preds = %13, %36
  %38 = fmul double %33, %33
  %39 = fmul double %38, %38
  %40 = fmul double %38, %39
  %41 = tail call double @llvm.fmuladd.f64(double %38, double -1.529000e-03, double 3.971000e-03)
  %42 = tail call double @llvm.fmuladd.f64(double %40, double %41, double -1.379100e-02)
  %43 = tail call double @llvm.fmuladd.f64(double %38, double %42, double -1.319790e-01)
  %44 = tail call double @llvm.fmuladd.f64(double %38, double %43, double 8.707000e-01)
  %45 = fdiv double %0, %44
  %.fca.0.insert = insertvalue { double, double } poison, double %45, 0
  %.fca.1.insert = insertvalue { double, double } %.fca.0.insert, double %33, 1
  ret { double, double } %.fca.1.insert
}

; Function Attrs: mustprogress nofree norecurse nosync nounwind willreturn memory(none) uwtable
define internal { double, double } @_ZL18natearth_s_forward5PJ_LPP8PJconsts(double %0, double %1, ptr nocapture readnone %2) #3 {
  %4 = fmul double %1, %1
  %5 = fmul double %4, %4
  %6 = fmul double %4, %5
  %7 = tail call double @llvm.fmuladd.f64(double %4, double -1.529000e-03, double 3.971000e-03)
  %8 = tail call double @llvm.fmuladd.f64(double %4, double 2.887400e-02, double -4.447500e-02)
  %9 = insertelement <2 x double> poison, double %6, i64 0
  %10 = insertelement <2 x double> %9, double %5, i64 1
  %11 = insertelement <2 x double> <double poison, double -5.916000e-03>, double %7, i64 0
  %12 = insertelement <2 x double> <double -1.379100e-02, double poison>, double %8, i64 1
  %13 = tail call <2 x double> @llvm.fmuladd.v2f64(<2 x double> %10, <2 x double> %11, <2 x double> %12)
  %14 = insertelement <2 x double> poison, double %4, i64 0
  %15 = insertelement <2 x double> %14, double %5, i64 1
  %16 = tail call <2 x double> @llvm.fmuladd.v2f64(<2 x double> %15, <2 x double> %13, <2 x double> <double -1.319790e-01, double 1.508500e-02>)
  %17 = shufflevector <2 x double> %14, <2 x double> poison, <2 x i32> zeroinitializer
  %18 = tail call <2 x double> @llvm.fmuladd.v2f64(<2 x double> %17, <2 x double> %16, <2 x double> <double 8.707000e-01, double 0x3FF01D99029AE4F3>)
  %19 = insertelement <2 x double> poison, double %0, i64 0
  %20 = insertelement <2 x double> %19, double %1, i64 1
  %21 = fmul <2 x double> %18, %20
  %22 = extractelement <2 x double> %21, i64 0
  %.fca.0.insert = insertvalue { double, double } poison, double %22, 0
  %23 = extractelement <2 x double> %21, i64 1
  %.fca.1.insert = insertvalue { double, double } %.fca.0.insert, double %23, 1
  ret { double, double } %.fca.1.insert
}

; Function Attrs: mustprogress nocallback nofree nosync nounwind speculatable willreturn memory(none)
declare double @llvm.fmuladd.f64(double, double, double) #4

; Function Attrs: mustprogress nocallback nofree nosync nounwind speculatable willreturn memory(none)
declare double @llvm.fabs.f64(double) #4

declare void @_Z22proj_context_errno_setP6pj_ctxi(ptr noundef, i32 noundef) local_unnamed_addr #2

; Function Attrs: nocallback nofree nosync nounwind speculatable willreturn memory(none)
declare <2 x double> @llvm.fmuladd.v2f64(<2 x double>, <2 x double>, <2 x double>) #5


!llvm.module.flags = !{!0, !1, !2, !3}

!0 = !{i32 1, !"wchar_size", i32 4}
!1 = !{i32 8, !"PIC Level", i32 2}
!2 = !{i32 7, !"uwtable", i32 2}
!3 = !{i32 7, !"frame-pointer", i32 2}
!4 = distinct !{!4, !5}
!5 = !{!"llvm.loop.mustprogress"}
